; Function Attrs: mustprogress nounwind uwtable
define internal fastcc void @_ZN12_GLOBAL__N_114ODRDeclVisitor29VisitRedeclarableTemplateDeclEPKN5clang24RedeclarableTemplateDeclE(ptr noundef nonnull readonly align 8 captures(none) dereferenceable(16) %0, ptr noundef nonnull %1) unnamed_addr #0 align 2 {
  %3 = getelementptr inbounds nuw i8, ptr %0, i64 8
  %4 = load ptr, ptr %3, align 8
  %5 = tail call noundef ptr @_ZNK5clang24RedeclarableTemplateDecl12getCommonPtrEv(ptr noundef nonnull align 8 dereferenceable(88) %1) #14
  %.0.copyload.i.i.i.i = load i64, ptr %5, align 8
  %6 = getelementptr inbounds nuw i8, ptr %4, i64 24
  %7 = tail call noundef i64 @_ZNK4llvm15SmallVectorBaseImE4sizeEv(ptr noundef nonnull align 8 dereferenceable(24) %6) #14
  %8 = add i64 %7, 1
  %9 = tail call noundef i64 @_ZNK4llvm15SmallVectorBaseImE8capacityEv(ptr noundef nonnull align 8 dereferenceable(24) %6) #14
  %.not.i.i.i.i = icmp ugt i64 %8, %9
  br i1 %.not.i.i.i.i, label %10, label %_ZN5clang7ODRHash10AddBooleanEb.exit

10:                                               ; preds = %2
  %11 = getelementptr inbounds nuw i8, ptr %4, i64 48
  tail call void @_ZN4llvm15SmallVectorBaseImE8grow_podEPvmm(ptr noundef nonnull align 8 dereferenceable(24) %6, ptr noundef nonnull %11, i64 noundef %8, i64 noundef 1) #14
  br label %_ZN5clang7ODRHash10AddBooleanEb.exit

_ZN5clang7ODRHash10AddBooleanEb.exit:             ; preds = %2, %10
  %12 = trunc i64 %.0.copyload.i.i.i.i to i8
  %13 = lshr i8 %12, 2
  %14 = and i8 %13, 1
  %15 = load ptr, ptr %6, align 8
  %16 = tail call noundef i64 @_ZNK4llvm15SmallVectorBaseImE4sizeEv(ptr noundef nonnull align 8 dereferenceable(24) %6) #14
  %17 = getelementptr inbounds i8, ptr %15, i64 %16
  store i8 %14, ptr %17, align 1
  %18 = tail call noundef i64 @_ZNK4llvm15SmallVectorBaseImE4sizeEv(ptr noundef nonnull align 8 dereferenceable(24) %6) #14
  %19 = add i64 %18, 1
  tail call void @_ZN4llvm15SmallVectorBaseImE8set_sizeEm(ptr noundef nonnull align 8 dereferenceable(24) %6, i64 noundef %19) #14
  %20 = load ptr, ptr %3, align 8
  %21 = getelementptr inbounds nuw i8, ptr %1, i64 56
  %22 = load ptr, ptr %21, align 8
  tail call void @_ZN5clang7ODRHash24AddTemplateParameterListEPKNS_21TemplateParameterListE(ptr noundef nonnull align 8 dereferenceable(320) %20, ptr noundef %22)
  %.val.i = load ptr, ptr %3, align 8
  %23 = getelementptr i8, ptr %1, i64 40
  %.val3.i = load i64, ptr %23, align 8
  tail call void @_ZN5clang7ODRHash22AddDeclarationNameImplENS_15DeclarationNameE(ptr noundef nonnull align 8 dereferenceable(320) %.val.i, i64 %.val3.i)
  ret void
}